target datalayout = "e-m:e-p270:32:32-p271:32:32-p272:64:64-i64:64-i128:128-f80:128-n8:16:32:64-S128"
target triple = "x86_64-pc-linux-gnu"

; Function Attrs: nounwind uwtable
define internal i64 @diff1st(i32 noundef %0, i32 noundef %1, ptr noundef %2, ptr noundef %3, i32 noundef %4) #0 {
  %6 = alloca i32, align 4
  %7 = alloca i32, align 4
  %8 = alloca ptr, align 8
  %9 = alloca ptr, align 8
  %10 = alloca i32, align 4
  %11 = alloca i64, align 8
  %12 = alloca i32, align 4
  %13 = alloca i32, align 4
  %14 = alloca i32, align 4
  %15 = alloca i32, align 4
  store i32 %0, ptr %6, align 4, !tbaa !36
  store i32 %1, ptr %7, align 4, !tbaa !36
  store ptr %2, ptr %8, align 8, !tbaa !39
  store ptr %3, ptr %9, align 8, !tbaa !39
  store i32 %4, ptr %10, align 4, !tbaa !36
  call void @llvm.lifetime.start.p0(i64 8, ptr %11) #12
  store i64 0, ptr %11, align 8, !tbaa !84
  call void @llvm.lifetime.start.p0(i64 4, ptr %12) #12
  store i32 0, ptr %12, align 4, !tbaa !36
  br label %16

16:                                               ; preds = %208, %5
  %17 = load i32, ptr %12, align 4, !tbaa !36
  %18 = load i32, ptr %7, align 4, !tbaa !36
  %19 = icmp ult i32 %17, %18
  br i1 %19, label %21, label %20

20:                                               ; preds = %16
  store i32 2, ptr %13, align 4
  call void @llvm.lifetime.end.p0(i64 4, ptr %12) #12
  br label %211

21:                                               ; preds = %16
  call void @llvm.lifetime.start.p0(i64 4, ptr %14) #12
  store i32 0, ptr %14, align 4, !tbaa !36
  br label %22

22:                                               ; preds = %204, %21
  %23 = load i32, ptr %14, align 4, !tbaa !36
  %24 = load i32, ptr %6, align 4, !tbaa !36
  %25 = icmp ult i32 %23, %24
  br i1 %25, label %27, label %26

26:                                               ; preds = %22
  store i32 5, ptr %13, align 4
  call void @llvm.lifetime.end.p0(i64 4, ptr %14) #12
  br label %207

27:                                               ; preds = %22
  call void @llvm.lifetime.start.p0(i64 4, ptr %15) #12
  %28 = load ptr, ptr %8, align 8, !tbaa !39
  %29 = load i32, ptr %12, align 4, !tbaa !36
  %30 = load i32, ptr %10, align 4, !tbaa !36
  %31 = mul i32 %29, %30
  %32 = load i32, ptr %14, align 4, !tbaa !36
  %33 = add i32 %31, %32
  %34 = zext i32 %33 to i64
  %35 = getelementptr inbounds nuw i16, ptr %28, i64 %34
  %36 = load i16, ptr %35, align 2, !tbaa !85
  %37 = sext i16 %36 to i32
  %38 = load ptr, ptr %8, align 8, !tbaa !39
  %39 = load i32, ptr %12, align 4, !tbaa !36
  %40 = load i32, ptr %10, align 4, !tbaa !36
  %41 = mul i32 %39, %40
  %42 = load i32, ptr %14, align 4, !tbaa !36
  %43 = add i32 %41, %42
  %44 = add i32 %43, 1
  %45 = zext i32 %44 to i64
  %46 = getelementptr inbounds nuw i16, ptr %38, i64 %45
  %47 = load i16, ptr %46, align 2, !tbaa !85
  %48 = sext i16 %47 to i32
  %49 = add nsw i32 %37, %48
  %50 = load ptr, ptr %8, align 8, !tbaa !39
  %51 = load i32, ptr %12, align 4, !tbaa !36
  %52 = add i32 %51, 1
  %53 = load i32, ptr %10, align 4, !tbaa !36
  %54 = mul i32 %52, %53
  %55 = load i32, ptr %14, align 4, !tbaa !36
  %56 = add i32 %54, %55
  %57 = zext i32 %56 to i64
  %58 = getelementptr inbounds nuw i16, ptr %50, i64 %57
  %59 = load i16, ptr %58, align 2, !tbaa !85
  %60 = sext i16 %59 to i32
  %61 = add nsw i32 %49, %60
  %62 = load ptr, ptr %8, align 8, !tbaa !39
  %63 = load i32, ptr %12, align 4, !tbaa !36
  %64 = add i32 %63, 1
  %65 = load i32, ptr %10, align 4, !tbaa !36
  %66 = mul i32 %64, %65
  %67 = load i32, ptr %14, align 4, !tbaa !36
  %68 = add i32 %66, %67
  %69 = add i32 %68, 1
  %70 = zext i32 %69 to i64
  %71 = getelementptr inbounds nuw i16, ptr %62, i64 %70
  %72 = load i16, ptr %71, align 2, !tbaa !85
  %73 = sext i16 %72 to i32
  %74 = add nsw i32 %61, %73
  %75 = load ptr, ptr %9, align 8, !tbaa !39
  %76 = load i32, ptr %12, align 4, !tbaa !36
  %77 = load i32, ptr %10, align 4, !tbaa !36
  %78 = mul i32 %76, %77
  %79 = load i32, ptr %14, align 4, !tbaa !36
  %80 = add i32 %78, %79
  %81 = zext i32 %80 to i64
  %82 = getelementptr inbounds nuw i16, ptr %75, i64 %81
  %83 = load i16, ptr %82, align 2, !tbaa !85
  %84 = sext i16 %83 to i32
  %85 = load ptr, ptr %9, align 8, !tbaa !39
  %86 = load i32, ptr %12, align 4, !tbaa !36
  %87 = load i32, ptr %10, align 4, !tbaa !36
  %88 = mul i32 %86, %87
  %89 = load i32, ptr %14, align 4, !tbaa !36
  %90 = add i32 %88, %89
  %91 = add i32 %90, 1
  %92 = zext i32 %91 to i64
  %93 = getelementptr inbounds nuw i16, ptr %85, i64 %92
  %94 = load i16, ptr %93, align 2, !tbaa !85
  %95 = sext i16 %94 to i32
  %96 = add nsw i32 %84, %95
  %97 = load ptr, ptr %9, align 8, !tbaa !39
  %98 = load i32, ptr %12, align 4, !tbaa !36
  %99 = add i32 %98, 1
  %100 = load i32, ptr %10, align 4, !tbaa !36
  %101 = mul i32 %99, %100
  %102 = load i32, ptr %14, align 4, !tbaa !36
  %103 = add i32 %101, %102
  %104 = zext i32 %103 to i64
  %105 = getelementptr inbounds nuw i16, ptr %97, i64 %104
  %106 = load i16, ptr %105, align 2, !tbaa !85
  %107 = sext i16 %106 to i32
  %108 = add nsw i32 %96, %107
  %109 = load ptr, ptr %9, align 8, !tbaa !39
  %110 = load i32, ptr %12, align 4, !tbaa !36
  %111 = add i32 %110, 1
  %112 = load i32, ptr %10, align 4, !tbaa !36
  %113 = mul i32 %111, %112
  %114 = load i32, ptr %14, align 4, !tbaa !36
  %115 = add i32 %113, %114
  %116 = add i32 %115, 1
  %117 = zext i32 %116 to i64
  %118 = getelementptr inbounds nuw i16, ptr %109, i64 %117
  %119 = load i16, ptr %118, align 2, !tbaa !85
  %120 = sext i16 %119 to i32
  %121 = add nsw i32 %108, %120
  %122 = sub nsw i32 %74, %121
  store i32 %122, ptr %15, align 4, !tbaa !36
  %123 = load i32, ptr %15, align 4, !tbaa !36
  %124 = call i32 @llvm.abs.i32(i32 %123, i1 true)
  %125 = sext i32 %124 to i64
  %126 = load i64, ptr %11, align 8, !tbaa !84
  %127 = add i64 %126, %125
  store i64 %127, ptr %11, align 8, !tbaa !84
  %128 = load ptr, ptr %8, align 8, !tbaa !39
  %129 = load i32, ptr %12, align 4, !tbaa !36
  %130 = load i32, ptr %10, align 4, !tbaa !36
  %131 = mul i32 %129, %130
  %132 = load i32, ptr %14, align 4, !tbaa !36
  %133 = add i32 %131, %132
  %134 = zext i32 %133 to i64
  %135 = getelementptr inbounds nuw i16, ptr %128, i64 %134
  %136 = load i16, ptr %135, align 2, !tbaa !85
  %137 = load ptr, ptr %9, align 8, !tbaa !39
  %138 = load i32, ptr %12, align 4, !tbaa !36
  %139 = load i32, ptr %10, align 4, !tbaa !36
  %140 = mul i32 %138, %139
  %141 = load i32, ptr %14, align 4, !tbaa !36
  %142 = add i32 %140, %141
  %143 = zext i32 %142 to i64
  %144 = getelementptr inbounds nuw i16, ptr %137, i64 %143
  store i16 %136, ptr %144, align 2, !tbaa !85
  %145 = load ptr, ptr %8, align 8, !tbaa !39
  %146 = load i32, ptr %12, align 4, !tbaa !36
  %147 = add i32 %146, 1
  %148 = load i32, ptr %10, align 4, !tbaa !36
  %149 = mul i32 %147, %148
  %150 = load i32, ptr %14, align 4, !tbaa !36
  %151 = add i32 %149, %150
  %152 = zext i32 %151 to i64
  %153 = getelementptr inbounds nuw i16, ptr %145, i64 %152
  %154 = load i16, ptr %153, align 2, !tbaa !85
  %155 = load ptr, ptr %9, align 8, !tbaa !39
  %156 = load i32, ptr %12, align 4, !tbaa !36
  %157 = add i32 %156, 1
  %158 = load i32, ptr %10, align 4, !tbaa !36
  %159 = mul i32 %157, %158
  %160 = load i32, ptr %14, align 4, !tbaa !36
  %161 = add i32 %159, %160
  %162 = zext i32 %161 to i64
  %163 = getelementptr inbounds nuw i16, ptr %155, i64 %162
  store i16 %154, ptr %163, align 2, !tbaa !85
  %164 = load ptr, ptr %8, align 8, !tbaa !39
  %165 = load i32, ptr %12, align 4, !tbaa !36
  %166 = load i32, ptr %10, align 4, !tbaa !36
  %167 = mul i32 %165, %166
  %168 = load i32, ptr %14, align 4, !tbaa !36
  %169 = add i32 %167, %168
  %170 = add i32 %169, 1
  %171 = zext i32 %170 to i64
  %172 = getelementptr inbounds nuw i16, ptr %164, i64 %171
  %173 = load i16, ptr %172, align 2, !tbaa !85
  %174 = load ptr, ptr %9, align 8, !tbaa !39
  %175 = load i32, ptr %12, align 4, !tbaa !36
  %176 = load i32, ptr %10, align 4, !tbaa !36
  %177 = mul i32 %175, %176
  %178 = load i32, ptr %14, align 4, !tbaa !36
  %179 = add i32 %177, %178
  %180 = add i32 %179, 1
  %181 = zext i32 %180 to i64
  %182 = getelementptr inbounds nuw i16, ptr %174, i64 %181
  store i16 %173, ptr %182, align 2, !tbaa !85
  %183 = load ptr, ptr %8, align 8, !tbaa !39
  %184 = load i32, ptr %12, align 4, !tbaa !36
  %185 = add i32 %184, 1
  %186 = load i32, ptr %10, align 4, !tbaa !36
  %187 = mul i32 %185, %186
  %188 = load i32, ptr %14, align 4, !tbaa !36
  %189 = add i32 %187, %188
  %190 = add i32 %189, 1
  %191 = zext i32 %190 to i64
  %192 = getelementptr inbounds nuw i16, ptr %183, i64 %191
  %193 = load i16, ptr %192, align 2, !tbaa !85
  %194 = load ptr, ptr %9, align 8, !tbaa !39
  %195 = load i32, ptr %12, align 4, !tbaa !36
  %196 = add i32 %195, 1
  %197 = load i32, ptr %10, align 4, !tbaa !36
  %198 = mul i32 %196, %197
  %199 = load i32, ptr %14, align 4, !tbaa !36
  %200 = add i32 %198, %199
  %201 = add i32 %200, 1
  %202 = zext i32 %201 to i64
  %203 = getelementptr inbounds nuw i16, ptr %194, i64 %202
  store i16 %193, ptr %203, align 2, !tbaa !85
  call void @llvm.lifetime.end.p0(i64 4, ptr %15) #12
  br label %204

204:                                              ; preds = %27
  %205 = load i32, ptr %14, align 4, !tbaa !36
  %206 = add i32 %205, 2
  store i32 %206, ptr %14, align 4, !tbaa !36
  br label %22, !llvm.loop !89

207:                                              ; preds = %26
  br label %208

208:                                              ; preds = %207
  %209 = load i32, ptr %12, align 4, !tbaa !36
  %210 = add i32 %209, 2
  store i32 %210, ptr %12, align 4, !tbaa !36
  br label %16, !llvm.loop !90

211:                                              ; preds = %20
  %212 = load i64, ptr %11, align 8, !tbaa !84
  %213 = mul i64 %212, 2
  store i32 1, ptr %13, align 4
  call void @llvm.lifetime.end.p0(i64 8, ptr %11) #12
  ret i64 %213
}