; Function Attrs: nofree norecurse nosync nounwind memory(argmem: readwrite) uwtable
define internal range(i64 0, -1) i64 @diff1st(i32 noundef %0, i32 noundef %1, ptr noundef readonly captures(none) %2, ptr noundef captures(none) %3, i32 noundef %4) #5 {
  %.not = icmp eq i32 %1, 0
  %.not86 = icmp eq i32 %0, 0
  %or.cond = or i1 %.not, %.not86
  br i1 %or.cond, label %._crit_edge84, label %.preheader.us.preheader

.preheader.us.preheader:                          ; preds = %5
  %6 = zext i32 %0 to i64
  br label %.preheader.us

.preheader.us:                                    ; preds = %.preheader.us.preheader, %._crit_edge.us
  %.083.us = phi i64 [ %49, %._crit_edge.us ], [ 0, %.preheader.us.preheader ]
  %.07382.us = phi i32 [ %54, %._crit_edge.us ], [ 0, %.preheader.us.preheader ]
  %7 = mul i32 %.07382.us, %4
  %8 = or disjoint i32 %.07382.us, 1
  %9 = mul i32 %8, %4
  %invariant.op.us = add i32 %9, 1
  br label %10

10:                                               ; preds = %.preheader.us, %10
  %indvars.iv = phi i64 [ 0, %.preheader.us ], [ %indvars.iv.next, %10 ]
  %.181.us = phi i64 [ %.083.us, %.preheader.us ], [ %49, %10 ]
  %11 = trunc nuw i64 %indvars.iv to i32
  %12 = add i32 %7, %11
  %13 = zext i32 %12 to i64
  %14 = getelementptr inbounds nuw i16, ptr %2, i64 %13
  %15 = load i16, ptr %14, align 2, !tbaa !74
  %16 = sext i16 %15 to i32
  %17 = or disjoint i32 %12, 1
  %18 = zext i32 %17 to i64
  %19 = getelementptr inbounds nuw i16, ptr %2, i64 %18
  %20 = load i16, ptr %19, align 2, !tbaa !74
  %21 = sext i16 %20 to i32
  %22 = add i32 %9, %11
  %23 = zext i32 %22 to i64
  %24 = getelementptr inbounds nuw i16, ptr %2, i64 %23
  %25 = load i16, ptr %24, align 2, !tbaa !74
  %26 = sext i16 %25 to i32
  %.reass.us = add i32 %invariant.op.us, %11
  %27 = zext i32 %.reass.us to i64
  %28 = getelementptr inbounds nuw i16, ptr %2, i64 %27
  %29 = load i16, ptr %28, align 2, !tbaa !74
  %30 = sext i16 %29 to i32
  %31 = getelementptr inbounds nuw i16, ptr %3, i64 %13
  %32 = load i16, ptr %31, align 2, !tbaa !74
  %33 = sext i16 %32 to i32
  %34 = getelementptr inbounds nuw i16, ptr %3, i64 %18
  %35 = load i16, ptr %34, align 2, !tbaa !74
  %36 = sext i16 %35 to i32
  %37 = getelementptr inbounds nuw i16, ptr %3, i64 %23
  %38 = load i16, ptr %37, align 2, !tbaa !74
  %39 = sext i16 %38 to i32
  %40 = getelementptr inbounds nuw i16, ptr %3, i64 %27
  %41 = load i16, ptr %40, align 2, !tbaa !74
  %42 = sext i16 %41 to i32
  %.neg75.us = add nsw i32 %21, %16
  %.neg77.us = add nsw i32 %.neg75.us, %26
  %.neg79.us = add nsw i32 %.neg77.us, %30
  %43 = add nsw i32 %33, %36
  %44 = add nsw i32 %43, %39
  %45 = add nsw i32 %44, %42
  %46 = sub nsw i32 %.neg79.us, %45
  %47 = tail call i32 @llvm.abs.i32(i32 %46, i1 true)
  %48 = zext nneg i32 %47 to i64
  %49 = add i64 %.181.us, %48
  store i16 %15, ptr %31, align 2, !tbaa !74
  %50 = load i16, ptr %24, align 2, !tbaa !74
  store i16 %50, ptr %37, align 2, !tbaa !74
  %51 = load i16, ptr %19, align 2, !tbaa !74
  store i16 %51, ptr %34, align 2, !tbaa !74
  %52 = load i16, ptr %28, align 2, !tbaa !74
  store i16 %52, ptr %40, align 2, !tbaa !74
  %indvars.iv.next = add nuw nsw i64 %indvars.iv, 2
  %53 = icmp samesign ult i64 %indvars.iv.next, %6
  br i1 %53, label %10, label %._crit_edge.us, !llvm.loop !78

._crit_edge.us:                                   ; preds = %10
  %54 = add nuw i32 %.07382.us, 2
  %55 = icmp ult i32 %54, %1
  br i1 %55, label %.preheader.us, label %._crit_edge84.loopexit87, !llvm.loop !79

._crit_edge84.loopexit87:                         ; preds = %._crit_edge.us
  %56 = shl i64 %49, 1
  br label %._crit_edge84

._crit_edge84:                                    ; preds = %._crit_edge84.loopexit87, %5
  %.0.lcssa = phi i64 [ 0, %5 ], [ %56, %._crit_edge84.loopexit87 ]
  ret i64 %.0.lcssa
}